target datalayout = "e-m:e-p270:32:32-p271:32:32-p272:64:64-i64:64-i128:128-f80:128-n8:16:32:64-S128"
target triple = "x86_64-pc-linux-gnu"

%class.QString = type { %struct.QArrayDataPointer }
%struct.QArrayDataPointer = type { ptr, ptr, i64 }
%class.SequenceDialog = type <{ %class.WiresharkDialog.base, [3 x i8], ptr, ptr, ptr, i32, i32, double, i32, i8, [3 x i8], ptr, ptr, ptr, %class.QMenu, ptr, ptr, ptr, ptr, %class.QPointer, i8, [7 x i8] }>
%class.WiresharkDialog.base = type <{ %class.GeometryStateDialog, ptr, i8, [7 x i8], %class.QString, %class.QList, i32, i8 }>
%class.GeometryStateDialog = type { %class.QDialog, %class.QString, ptr }
%class.QDialog = type { %class.QWidget }
%class.QWidget = type { %class.QObject, %class.QPaintDevice.base, ptr }
%class.QObject = type { ptr, %class.QScopedPointer }
%class.QScopedPointer = type { ptr }
%class.QPaintDevice.base = type <{ ptr, i16 }>
%class.QList = type { %struct.QArrayDataPointer.0 }
%struct.QArrayDataPointer.0 = type { ptr, ptr, i64 }
%class.QMenu = type { %class.QWidget }
%class.QPointer = type { %class.QWeakPointer }
%class.QWeakPointer = type { ptr, ptr }
%class.Ui_SequenceDialog = type { ptr, ptr, ptr, ptr, ptr, ptr, ptr, ptr, ptr, ptr, ptr, ptr, ptr, ptr, ptr, ptr, ptr, ptr, ptr, ptr, ptr, ptr, ptr, ptr, ptr, ptr, ptr, ptr, ptr, ptr, ptr, ptr, ptr, ptr, ptr, ptr, ptr, ptr }
%class.QCPRange = type { double, double }

; Function Attrs: mustprogress nounwind null_pointer_is_valid sspstrong uwtable
define linkonce_odr noundef double @_ZNK8QCPRange4sizeEv(ptr noundef align 8 dereferenceable_or_null(16) %0) #3 comdat align 2 {
  %2 = alloca ptr, align 8
  store ptr %0, ptr %2, align 8
  %3 = load ptr, ptr %2, align 8
  %4 = getelementptr inbounds nuw %class.QCPRange, ptr %3, i32 0, i32 1
  %5 = load double, ptr %4, align 8
  %6 = getelementptr inbounds nuw %class.QCPRange, ptr %3, i32 0, i32 0
  %7 = load double, ptr %6, align 8
  %8 = fsub double %5, %7
  ret double %8
}

; Function Attrs: inlinehint mustprogress nounwind null_pointer_is_valid sspstrong uwtable
define linkonce_odr noundef i32 @_Z6qRoundd(double noundef %0) #6 comdat {
  %2 = alloca double, align 8
  store double %0, ptr %2, align 8
  %3 = load double, ptr %2, align 8
  %4 = load double, ptr %2, align 8
  %5 = call double @llvm.copysign.f64(double 5.000000e-01, double %4)
  %6 = fadd double %3, %5
  %7 = fptosi double %6 to i32
  ret i32 %7
}

; Function Attrs: mustprogress nounwind null_pointer_is_valid sspstrong uwtable
define linkonce_odr noundef double @_ZNK8QCPRange6centerEv(ptr noundef align 8 dereferenceable_or_null(16) %0) #3 comdat align 2 {
  %2 = alloca ptr, align 8
  store ptr %0, ptr %2, align 8
  %3 = load ptr, ptr %2, align 8
  %4 = getelementptr inbounds nuw %class.QCPRange, ptr %3, i32 0, i32 1
  %5 = load double, ptr %4, align 8
  %6 = getelementptr inbounds nuw %class.QCPRange, ptr %3, i32 0, i32 0
  %7 = load double, ptr %6, align 8
  %8 = fadd double %5, %7
  %9 = fmul double %8, 5.000000e-01
  ret double %9
}

; Function Attrs: mustprogress null_pointer_is_valid sspstrong uwtable
define void @_ZN14SequenceDialog12xAxisChangedE8QCPRange(ptr noundef align 8 dereferenceable_or_null(305) %0, double %1, double %2) #0 align 2 {
  %4 = alloca %class.QCPRange, align 8
  %5 = alloca ptr, align 8
  %6 = getelementptr inbounds nuw { double, double }, ptr %4, i32 0, i32 0
  store double %1, ptr %6, align 8
  %7 = getelementptr inbounds nuw { double, double }, ptr %4, i32 0, i32 1
  store double %2, ptr %7, align 8
  store ptr %0, ptr %5, align 8
  %8 = load ptr, ptr %5, align 8
  %9 = getelementptr inbounds nuw %class.SequenceDialog, ptr %8, i32 0, i32 2
  %10 = load ptr, ptr %9, align 8
  %11 = getelementptr inbounds nuw %class.Ui_SequenceDialog, ptr %10, i32 0, i32 24
  %12 = load ptr, ptr %11, align 8
  %13 = call noundef double @_ZNK8QCPRange6centerEv(ptr noundef align 8 dereferenceable_or_null(16) %4)
  %14 = fmul double %13, 1.000000e+02
  %15 = call noundef i32 @_Z6qRoundd(double noundef %14)
  call void @_ZN15QAbstractSlider8setValueEi(ptr noundef align 8 dereferenceable_or_null(40) %12, i32 noundef %15)
  %16 = getelementptr inbounds nuw %class.SequenceDialog, ptr %8, i32 0, i32 2
  %17 = load ptr, ptr %16, align 8
  %18 = getelementptr inbounds nuw %class.Ui_SequenceDialog, ptr %17, i32 0, i32 24
  %19 = load ptr, ptr %18, align 8
  %20 = call noundef double @_ZNK8QCPRange4sizeEv(ptr noundef align 8 dereferenceable_or_null(16) %4)
  %21 = fmul double %20, 1.000000e+02
  %22 = call noundef i32 @_Z6qRoundd(double noundef %21)
  call void @_ZN15QAbstractSlider11setPageStepEi(ptr noundef align 8 dereferenceable_or_null(40) %19, i32 noundef %22)
  ret void
}