; Function Attrs: mustprogress null_pointer_is_valid sspstrong uwtable
define void @_ZN14SequenceDialog12xAxisChangedE8QCPRange(ptr noundef readonly align 8 captures(none) dereferenceable_or_null(305) %0, double %1, double %2) local_unnamed_addr #0 align 2 {
  %4 = getelementptr inbounds nuw i8, ptr %0, i64 144
  %5 = load ptr, ptr %4, align 8
  %6 = getelementptr inbounds nuw i8, ptr %5, i64 192
  %7 = load ptr, ptr %6, align 8
  %8 = fadd double %1, %2
  %9 = fmul double %8, 5.000000e-01
  %10 = fmul double %9, 1.000000e+02
  %11 = tail call double @llvm.copysign.f64(double 5.000000e-01, double %10)
  %12 = fadd double %10, %11
  %13 = fptosi double %12 to i32
  tail call void @_ZN15QAbstractSlider8setValueEi(ptr noundef align 8 dereferenceable_or_null(40) %7, i32 noundef %13)
  %14 = load ptr, ptr %4, align 8
  %15 = getelementptr inbounds nuw i8, ptr %14, i64 192
  %16 = load ptr, ptr %15, align 8
  %17 = fsub double %2, %1
  %18 = fmul double %17, 1.000000e+02
  %19 = tail call double @llvm.copysign.f64(double 5.000000e-01, double %18)
  %20 = fadd double %18, %19
  %21 = fptosi double %20 to i32
  tail call void @_ZN15QAbstractSlider11setPageStepEi(ptr noundef align 8 dereferenceable_or_null(40) %16, i32 noundef %21)
  ret void
}